target datalayout = "e-m:e-p270:32:32-p271:32:32-p272:64:64-i64:64-i128:128-f80:128-n8:16:32:64-S128"
target triple = "x86_64-pc-linux-gnu"

%struct.nameData = type { [64 x i8] }
%struct.HeapTupleData = type { i32, %struct.ItemPointerData, i32, ptr }
%struct.ItemPointerData = type { %struct.BlockIdData, i16 }
%struct.BlockIdData = type { i16, i16 }
%struct.HeapTupleHeaderData = type { %union.anon.1, %struct.ItemPointerData, i16, i16, i8, [0 x i8] }
%union.anon.1 = type { %struct.HeapTupleFields }
%struct.HeapTupleFields = type { i32, i32, %union.anon.2 }
%union.anon.2 = type { i32 }
%struct.FormData_pg_class = type { i32, %struct.nameData, i32, i32, i32, i32, i32, i32, i32, i32, float, i32, i32, i8, i8, i8, i8, i16, i16, i8, i8, i8, i8, i8, i8, i8, i8, i32, i32, i32 }
%struct.FormData_pg_attribute = type { i32, %struct.nameData, i32, i16, i16, i32, i16, i8, i8, i8, i8, i8, i8, i8, i8, i8, i8, i8, i16, i32 }

@.str.1 = private unnamed_addr constant [9 x i8] c"aclchk.c\00", align 1
@.str.100 = private unnamed_addr constant [36 x i8] c"relation with OID %u does not exist\00", align 1
@__func__.pg_attribute_aclcheck_all_ext = private unnamed_addr constant [30 x i8] c"pg_attribute_aclcheck_all_ext\00", align 1

; Function Attrs: inlinehint nounwind uwtable
define internal ptr @DatumGetPointer(i64 noundef %0) #7 {
  %2 = alloca i64, align 8
  store i64 %0, ptr %2, align 8
  %3 = load i64, ptr %2, align 8
  %4 = inttoptr i64 %3 to ptr
  ret ptr %4
}

; Function Attrs: inlinehint nounwind uwtable
define internal i64 @Int16GetDatum(i16 noundef signext %0) #7 {
  %2 = alloca i16, align 2
  store i16 %0, ptr %2, align 2
  %3 = load i16, ptr %2, align 2
  %4 = sext i16 %3 to i64
  ret i64 %4
}

; Function Attrs: inlinehint nounwind uwtable
define internal ptr @GETSTRUCT(ptr noundef %0) #7 {
  %2 = alloca ptr, align 8
  store ptr %0, ptr %2, align 8
  %3 = load ptr, ptr %2, align 8
  %4 = getelementptr inbounds nuw %struct.HeapTupleData, ptr %3, i32 0, i32 3
  %5 = load ptr, ptr %4, align 8
  %6 = load ptr, ptr %2, align 8
  %7 = getelementptr inbounds nuw %struct.HeapTupleData, ptr %6, i32 0, i32 3
  %8 = load ptr, ptr %7, align 8
  %9 = getelementptr inbounds nuw %struct.HeapTupleHeaderData, ptr %8, i32 0, i32 4
  %10 = load i8, ptr %9, align 2
  %11 = zext i8 %10 to i32
  %12 = sext i32 %11 to i64
  %13 = getelementptr inbounds i8, ptr %5, i64 %12
  ret ptr %13
}

; Function Attrs: inlinehint nounwind uwtable
define internal i64 @ObjectIdGetDatum(i32 noundef %0) #7 {
  %2 = alloca i32, align 4
  store i32 %0, ptr %2, align 4
  %3 = load i32, ptr %2, align 4
  %4 = zext i32 %3 to i64
  ret i64 %4
}

; Function Attrs: nounwind uwtable
define dso_local i32 @pg_attribute_aclcheck_all_ext(i32 noundef %0, i32 noundef %1, i64 noundef %2, i32 noundef %3, ptr noundef %4) #0 {
  %6 = alloca i32, align 4
  %7 = alloca i32, align 4
  %8 = alloca i32, align 4
  %9 = alloca i64, align 8
  %10 = alloca i32, align 4
  %11 = alloca ptr, align 8
  %12 = alloca i32, align 4
  %13 = alloca ptr, align 8
  %14 = alloca ptr, align 8
  %15 = alloca i32, align 4
  %16 = alloca i16, align 2
  %17 = alloca i16, align 2
  %18 = alloca i32, align 4
  %19 = alloca ptr, align 8
  %20 = alloca i64, align 8
  %21 = alloca i8, align 1
  %22 = alloca ptr, align 8
  %23 = alloca i64, align 8
  store i32 %0, ptr %7, align 4
  store i32 %1, ptr %8, align 4
  store i64 %2, ptr %9, align 8
  store i32 %3, ptr %10, align 4
  store ptr %4, ptr %11, align 8
  call void @llvm.lifetime.start.p0(i64 4, ptr %12) #9
  call void @llvm.lifetime.start.p0(i64 8, ptr %13) #9
  call void @llvm.lifetime.start.p0(i64 8, ptr %14) #9
  call void @llvm.lifetime.start.p0(i64 4, ptr %15) #9
  call void @llvm.lifetime.start.p0(i64 2, ptr %16) #9
  call void @llvm.lifetime.start.p0(i64 2, ptr %17) #9
  %24 = load i32, ptr %7, align 4
  %25 = call i64 @ObjectIdGetDatum(i32 noundef %24)
  %26 = call ptr @SearchSysCache1(i32 noundef 57, i64 noundef %25)
  store ptr %26, ptr %13, align 8
  %27 = load ptr, ptr %13, align 8
  %28 = icmp ne ptr %27, null
  br i1 %28, label %48, label %29

29:                                               ; preds = %5
  %30 = load ptr, ptr %11, align 8
  %31 = icmp ne ptr %30, null
  br i1 %31, label %32, label %34

32:                                               ; preds = %29
  %33 = load ptr, ptr %11, align 8
  store i8 1, ptr %33, align 1
  store i32 1, ptr %6, align 4
  store i32 1, ptr %18, align 4
  br label %126

34:                                               ; preds = %29
  br label %35

35:                                               ; preds = %34
  br i1 true, label %36, label %38

36:                                               ; preds = %35
  %37 = call zeroext i1 @errstart_cold(i32 noundef 21, ptr noundef null) #10
  br i1 %37, label %40, label %44

38:                                               ; preds = %35
  %39 = call zeroext i1 @errstart(i32 noundef 21, ptr noundef null)
  br i1 %39, label %40, label %44

40:                                               ; preds = %38, %36
  %41 = call i32 @errcode(i32 noundef 16908420)
  %42 = load i32, ptr %7, align 4
  %43 = call i32 (ptr, ...) @errmsg(ptr noundef @.str.100, i32 noundef %42)
  call void @errfinish(ptr noundef @.str.1, i32 noundef 3916, ptr noundef @__func__.pg_attribute_aclcheck_all_ext)
  br label %44

44:                                               ; preds = %40, %38, %36
  unreachable

45:                                               ; No predecessors!
  br label %46

46:                                               ; preds = %45
  br label %47

47:                                               ; preds = %46
  br label %48

48:                                               ; preds = %47, %5
  %49 = load ptr, ptr %13, align 8
  %50 = call ptr @GETSTRUCT(ptr noundef %49)
  store ptr %50, ptr %14, align 8
  %51 = load ptr, ptr %14, align 8
  %52 = getelementptr inbounds nuw %struct.FormData_pg_class, ptr %51, i32 0, i32 5
  %53 = load i32, ptr %52, align 4
  store i32 %53, ptr %15, align 4
  %54 = load ptr, ptr %14, align 8
  %55 = getelementptr inbounds nuw %struct.FormData_pg_class, ptr %54, i32 0, i32 17
  %56 = load i16, ptr %55, align 4
  store i16 %56, ptr %16, align 2
  %57 = load ptr, ptr %13, align 8
  call void @ReleaseSysCache(ptr noundef %57)
  store i32 1, ptr %12, align 4
  store i16 1, ptr %17, align 2
  br label %58

58:                                               ; preds = %121, %48
  %59 = load i16, ptr %17, align 2
  %60 = sext i16 %59 to i32
  %61 = load i16, ptr %16, align 2
  %62 = sext i16 %61 to i32
  %63 = icmp sle i32 %60, %62
  br i1 %63, label %64, label %124

64:                                               ; preds = %58
  call void @llvm.lifetime.start.p0(i64 8, ptr %19) #9
  call void @llvm.lifetime.start.p0(i64 8, ptr %20) #9
  call void @llvm.lifetime.start.p0(i64 1, ptr %21) #9
  call void @llvm.lifetime.start.p0(i64 8, ptr %22) #9
  call void @llvm.lifetime.start.p0(i64 8, ptr %23) #9
  %65 = load i32, ptr %7, align 4
  %66 = call i64 @ObjectIdGetDatum(i32 noundef %65)
  %67 = load i16, ptr %17, align 2
  %68 = call i64 @Int16GetDatum(i16 noundef signext %67)
  %69 = call ptr @SearchSysCache2(i32 noundef 7, i64 noundef %66, i64 noundef %68)
  store ptr %69, ptr %19, align 8
  %70 = load ptr, ptr %19, align 8
  %71 = icmp ne ptr %70, null
  br i1 %71, label %73, label %72

72:                                               ; preds = %64
  store i32 6, ptr %18, align 4
  br label %118

73:                                               ; preds = %64
  %74 = load ptr, ptr %19, align 8
  %75 = call ptr @GETSTRUCT(ptr noundef %74)
  %76 = getelementptr inbounds nuw %struct.FormData_pg_attribute, ptr %75, i32 0, i32 16
  %77 = load i8, ptr %76, align 1, !range !4, !noundef !5
  %78 = trunc i8 %77 to i1
  br i1 %78, label %79, label %81

79:                                               ; preds = %73
  %80 = load ptr, ptr %19, align 8
  call void @ReleaseSysCache(ptr noundef %80)
  store i32 6, ptr %18, align 4
  br label %118

81:                                               ; preds = %73
  %82 = load ptr, ptr %19, align 8
  %83 = call i64 @SysCacheGetAttr(i32 noundef 7, ptr noundef %82, i16 noundef signext 22, ptr noundef %21)
  store i64 %83, ptr %20, align 8
  %84 = load i8, ptr %21, align 1, !range !4, !noundef !5
  %85 = trunc i8 %84 to i1
  br i1 %85, label %86, label %87

86:                                               ; preds = %81
  store i64 0, ptr %23, align 8
  br label %103

87:                                               ; preds = %81
  %88 = load i64, ptr %20, align 8
  %89 = call ptr @DatumGetPointer(i64 noundef %88)
  %90 = call ptr @pg_detoast_datum(ptr noundef %89)
  store ptr %90, ptr %22, align 8
  %91 = load ptr, ptr %22, align 8
  %92 = load i32, ptr %8, align 4
  %93 = load i32, ptr %15, align 4
  %94 = load i64, ptr %9, align 8
  %95 = call i64 @aclmask(ptr noundef %91, i32 noundef %92, i32 noundef %93, i64 noundef %94, i32 noundef 1)
  store i64 %95, ptr %23, align 8
  %96 = load ptr, ptr %22, align 8
  %97 = load i64, ptr %20, align 8
  %98 = call ptr @DatumGetPointer(i64 noundef %97)
  %99 = icmp ne ptr %96, %98
  br i1 %99, label %100, label %102

100:                                              ; preds = %87
  %101 = load ptr, ptr %22, align 8
  call void @pfree(ptr noundef %101)
  br label %102

102:                                              ; preds = %100, %87
  br label %103

103:                                              ; preds = %102, %86
  %104 = load ptr, ptr %19, align 8
  call void @ReleaseSysCache(ptr noundef %104)
  %105 = load i64, ptr %23, align 8
  %106 = icmp ne i64 %105, 0
  br i1 %106, label %107, label %112

107:                                              ; preds = %103
  store i32 0, ptr %12, align 4
  %108 = load i32, ptr %10, align 4
  %109 = icmp eq i32 %108, 1
  br i1 %109, label %110, label %111

110:                                              ; preds = %107
  store i32 4, ptr %18, align 4
  br label %118

111:                                              ; preds = %107
  br label %117

112:                                              ; preds = %103
  store i32 1, ptr %12, align 4
  %113 = load i32, ptr %10, align 4
  %114 = icmp eq i32 %113, 0
  br i1 %114, label %115, label %116

115:                                              ; preds = %112
  store i32 4, ptr %18, align 4
  br label %118

116:                                              ; preds = %112
  br label %117

117:                                              ; preds = %116, %111
  store i32 0, ptr %18, align 4
  br label %118

118:                                              ; preds = %117, %115, %110, %79, %72
  call void @llvm.lifetime.end.p0(i64 8, ptr %23) #9
  call void @llvm.lifetime.end.p0(i64 8, ptr %22) #9
  call void @llvm.lifetime.end.p0(i64 1, ptr %21) #9
  call void @llvm.lifetime.end.p0(i64 8, ptr %20) #9
  call void @llvm.lifetime.end.p0(i64 8, ptr %19) #9
  %119 = load i32, ptr %18, align 4
  switch i32 %119, label %128 [
    i32 0, label %120
    i32 6, label %121
    i32 4, label %124
  ]

120:                                              ; preds = %118
  br label %121

121:                                              ; preds = %120, %118
  %122 = load i16, ptr %17, align 2
  %123 = add i16 %122, 1
  store i16 %123, ptr %17, align 2
  br label %58, !llvm.loop !20

124:                                              ; preds = %118, %58
  %125 = load i32, ptr %12, align 4
  store i32 %125, ptr %6, align 4
  store i32 1, ptr %18, align 4
  br label %126

126:                                              ; preds = %124, %32
  call void @llvm.lifetime.end.p0(i64 2, ptr %17) #9
  call void @llvm.lifetime.end.p0(i64 2, ptr %16) #9
  call void @llvm.lifetime.end.p0(i64 4, ptr %15) #9
  call void @llvm.lifetime.end.p0(i64 8, ptr %14) #9
  call void @llvm.lifetime.end.p0(i64 8, ptr %13) #9
  call void @llvm.lifetime.end.p0(i64 4, ptr %12) #9
  %127 = load i32, ptr %6, align 4
  ret i32 %127

128:                                              ; preds = %118
  unreachable
}