; Function Attrs: nounwind uwtable
define dso_local range(i32 0, 2) i32 @pg_attribute_aclcheck_all_ext(i32 noundef %0, i32 noundef %1, i64 noundef %2, i32 noundef %3, ptr noundef writeonly captures(address_is_null) %4) local_unnamed_addr #0 {
  %6 = alloca i8, align 1
  %7 = zext i32 %0 to i64
  %8 = tail call ptr @SearchSysCache1(i32 noundef 57, i64 noundef %7) #9
  %.not = icmp eq ptr %8, null
  br i1 %.not, label %9, label %15

9:                                                ; preds = %5
  %.not40 = icmp eq ptr %4, null
  br i1 %.not40, label %11, label %10

10:                                               ; preds = %9
  store i8 1, ptr %4, align 1
  br label %.loopexit

11:                                               ; preds = %9
  %12 = tail call zeroext i1 @errstart_cold(i32 noundef 21, ptr noundef null) #10
  tail call void @llvm.assume(i1 %12)
  %13 = tail call i32 @errcode(i32 noundef 16908420) #9
  %14 = tail call i32 (ptr, ...) @errmsg(ptr noundef nonnull @.str.100, i32 noundef %0) #9
  tail call void @errfinish(ptr noundef nonnull @.str.1, i32 noundef 3916, ptr noundef nonnull @__func__.pg_attribute_aclcheck_all_ext) #9
  unreachable

15:                                               ; preds = %5
  %16 = getelementptr i8, ptr %8, i64 16
  %.val45 = load ptr, ptr %16, align 8
  %17 = getelementptr inbounds nuw i8, ptr %.val45, i64 22
  %18 = load i8, ptr %17, align 2
  %19 = zext i8 %18 to i64
  %20 = getelementptr inbounds nuw i8, ptr %.val45, i64 %19
  %21 = getelementptr inbounds nuw i8, ptr %20, i64 80
  %22 = load i32, ptr %21, align 4
  %23 = getelementptr inbounds nuw i8, ptr %20, i64 116
  %24 = load i16, ptr %23, align 4
  tail call void @ReleaseSysCache(ptr noundef nonnull %8) #9
  %.not4155 = icmp slt i16 %24, 1
  br i1 %.not4155, label %.loopexit, label %.lr.ph

.lr.ph:                                           ; preds = %15
  switch i32 %3, label %.lr.ph.split.split [
    i32 1, label %.lr.ph.split.us.split
    i32 0, label %.lr.ph.split.split.us
  ]

.lr.ph.split.us.split:                            ; preds = %.lr.ph, %46
  %.03456.us = phi i16 [ %47, %46 ], [ 1, %.lr.ph ]
  call void @llvm.lifetime.start.p0(i64 1, ptr nonnull %6) #9
  %25 = sext i16 %.03456.us to i64
  %26 = call ptr @SearchSysCache2(i32 noundef 7, i64 noundef %7, i64 noundef %25) #9
  %.not42.us = icmp eq ptr %26, null
  br i1 %.not42.us, label %46, label %27

27:                                               ; preds = %.lr.ph.split.us.split
  %28 = getelementptr i8, ptr %26, i64 16
  %.val.us = load ptr, ptr %28, align 8
  %29 = getelementptr inbounds nuw i8, ptr %.val.us, i64 22
  %30 = load i8, ptr %29, align 2
  %31 = zext i8 %30 to i64
  %32 = getelementptr inbounds nuw i8, ptr %.val.us, i64 %31
  %33 = getelementptr inbounds nuw i8, ptr %32, i64 91
  %34 = load i8, ptr %33, align 1, !range !4, !noundef !5
  %35 = trunc nuw i8 %34 to i1
  br i1 %35, label %.sink.split, label %36

36:                                               ; preds = %27
  %37 = call i64 @SysCacheGetAttr(i32 noundef 7, ptr noundef nonnull %26, i16 noundef signext 22, ptr noundef nonnull %6) #9
  %38 = load i8, ptr %6, align 1, !range !4, !noundef !5
  %39 = trunc nuw i8 %38 to i1
  br i1 %39, label %.sink.split, label %40

40:                                               ; preds = %36
  %41 = inttoptr i64 %37 to ptr
  %42 = call ptr @pg_detoast_datum(ptr noundef %41) #9
  %43 = call i64 @aclmask(ptr noundef %42, i32 noundef %1, i32 noundef %22, i64 noundef %2, i32 noundef 1) #9
  %.not43.us = icmp eq ptr %42, %41
  br i1 %.not43.us, label %45, label %44

44:                                               ; preds = %40
  call void @pfree(ptr noundef %42) #9
  br label %45

45:                                               ; preds = %44, %40
  call void @ReleaseSysCache(ptr noundef nonnull %26) #9
  %.not44.us = icmp eq i64 %43, 0
  br i1 %.not44.us, label %46, label %.split.us

.sink.split:                                      ; preds = %27, %36
  call void @ReleaseSysCache(ptr noundef nonnull %26) #9
  br label %46

46:                                               ; preds = %.sink.split, %45, %.lr.ph.split.us.split
  call void @llvm.lifetime.end.p0(i64 1, ptr nonnull %6) #9
  %47 = add i16 %.03456.us, 1
  %.not41.us = icmp sgt i16 %47, %24
  br i1 %.not41.us, label %.loopexit, label %.lr.ph.split.us.split, !llvm.loop !14

.lr.ph.split.split.us:                            ; preds = %.lr.ph, %70
  %.03357.us59 = phi i32 [ %.2.ph.us66, %70 ], [ 1, %.lr.ph ]
  %.03456.us60 = phi i16 [ %71, %70 ], [ 1, %.lr.ph ]
  call void @llvm.lifetime.start.p0(i64 1, ptr nonnull %6) #9
  %48 = sext i16 %.03456.us60 to i64
  %49 = call ptr @SearchSysCache2(i32 noundef 7, i64 noundef %7, i64 noundef %48) #9
  %.not42.us61 = icmp eq ptr %49, null
  br i1 %.not42.us61, label %70, label %50

50:                                               ; preds = %.lr.ph.split.split.us
  %51 = getelementptr i8, ptr %49, i64 16
  %.val.us62 = load ptr, ptr %51, align 8
  %52 = getelementptr inbounds nuw i8, ptr %.val.us62, i64 22
  %53 = load i8, ptr %52, align 2
  %54 = zext i8 %53 to i64
  %55 = getelementptr inbounds nuw i8, ptr %.val.us62, i64 %54
  %56 = getelementptr inbounds nuw i8, ptr %55, i64 91
  %57 = load i8, ptr %56, align 1, !range !4, !noundef !5
  %58 = trunc nuw i8 %57 to i1
  br i1 %58, label %69, label %59

59:                                               ; preds = %50
  %60 = call i64 @SysCacheGetAttr(i32 noundef 7, ptr noundef nonnull %49, i16 noundef signext 22, ptr noundef nonnull %6) #9
  %61 = load i8, ptr %6, align 1, !range !4, !noundef !5
  %62 = trunc nuw i8 %61 to i1
  br i1 %62, label %.thread.us65, label %63

63:                                               ; preds = %59
  %64 = inttoptr i64 %60 to ptr
  %65 = call ptr @pg_detoast_datum(ptr noundef %64) #9
  %66 = call i64 @aclmask(ptr noundef %65, i32 noundef %1, i32 noundef %22, i64 noundef %2, i32 noundef 1) #9
  %.not43.us63 = icmp eq ptr %65, %64
  br i1 %.not43.us63, label %68, label %67

67:                                               ; preds = %63
  call void @pfree(ptr noundef %65) #9
  br label %68

68:                                               ; preds = %67, %63
  call void @ReleaseSysCache(ptr noundef nonnull %49) #9
  %.not44.us64 = icmp eq i64 %66, 0
  br i1 %.not44.us64, label %.split.us, label %70

.thread.us65:                                     ; preds = %59
  call void @ReleaseSysCache(ptr noundef nonnull %49) #9
  br label %.split.us

69:                                               ; preds = %50
  call void @ReleaseSysCache(ptr noundef nonnull %49) #9
  br label %70

70:                                               ; preds = %68, %69, %.lr.ph.split.split.us
  %.2.ph.us66 = phi i32 [ %.03357.us59, %.lr.ph.split.split.us ], [ %.03357.us59, %69 ], [ 0, %68 ]
  call void @llvm.lifetime.end.p0(i64 1, ptr nonnull %6) #9
  %71 = add i16 %.03456.us60, 1
  %.not41.us67 = icmp sgt i16 %71, %24
  br i1 %.not41.us67, label %.loopexit, label %.lr.ph.split.split.us, !llvm.loop !14

.lr.ph.split.split:                               ; preds = %.lr.ph, %95
  %.03357 = phi i32 [ %.2.ph, %95 ], [ 1, %.lr.ph ]
  %.03456 = phi i16 [ %96, %95 ], [ 1, %.lr.ph ]
  call void @llvm.lifetime.start.p0(i64 1, ptr nonnull %6) #9
  %72 = sext i16 %.03456 to i64
  %73 = call ptr @SearchSysCache2(i32 noundef 7, i64 noundef %7, i64 noundef %72) #9
  %.not42 = icmp eq ptr %73, null
  br i1 %.not42, label %95, label %74

74:                                               ; preds = %.lr.ph.split.split
  %75 = getelementptr i8, ptr %73, i64 16
  %.val = load ptr, ptr %75, align 8
  %76 = getelementptr inbounds nuw i8, ptr %.val, i64 22
  %77 = load i8, ptr %76, align 2
  %78 = zext i8 %77 to i64
  %79 = getelementptr inbounds nuw i8, ptr %.val, i64 %78
  %80 = getelementptr inbounds nuw i8, ptr %79, i64 91
  %81 = load i8, ptr %80, align 1, !range !4, !noundef !5
  %82 = trunc nuw i8 %81 to i1
  br i1 %82, label %83, label %84

83:                                               ; preds = %74
  call void @ReleaseSysCache(ptr noundef nonnull %73) #9
  br label %95

84:                                               ; preds = %74
  %85 = call i64 @SysCacheGetAttr(i32 noundef 7, ptr noundef nonnull %73, i16 noundef signext 22, ptr noundef nonnull %6) #9
  %86 = load i8, ptr %6, align 1, !range !4, !noundef !5
  %87 = trunc nuw i8 %86 to i1
  br i1 %87, label %.thread, label %88

.thread:                                          ; preds = %84
  call void @ReleaseSysCache(ptr noundef nonnull %73) #9
  br label %94

88:                                               ; preds = %84
  %89 = inttoptr i64 %85 to ptr
  %90 = call ptr @pg_detoast_datum(ptr noundef %89) #9
  %91 = call i64 @aclmask(ptr noundef %90, i32 noundef %1, i32 noundef %22, i64 noundef %2, i32 noundef 1) #9
  %.not43 = icmp eq ptr %90, %89
  br i1 %.not43, label %93, label %92

92:                                               ; preds = %88
  call void @pfree(ptr noundef %90) #9
  br label %93

93:                                               ; preds = %88, %92
  call void @ReleaseSysCache(ptr noundef nonnull %73) #9
  %.not44 = icmp eq i64 %91, 0
  br i1 %.not44, label %94, label %95

94:                                               ; preds = %.thread, %93
  br label %95

.split.us:                                        ; preds = %68, %45, %.thread.us65
  %.us-phi = phi i32 [ 1, %.thread.us65 ], [ 0, %45 ], [ 1, %68 ]
  call void @llvm.lifetime.end.p0(i64 1, ptr nonnull %6) #9
  br label %.loopexit

95:                                               ; preds = %93, %94, %83, %.lr.ph.split.split
  %.2.ph = phi i32 [ %.03357, %.lr.ph.split.split ], [ %.03357, %83 ], [ 1, %94 ], [ 0, %93 ]
  call void @llvm.lifetime.end.p0(i64 1, ptr nonnull %6) #9
  %96 = add i16 %.03456, 1
  %.not41 = icmp sgt i16 %96, %24
  br i1 %.not41, label %.loopexit, label %.lr.ph.split.split, !llvm.loop !14

.loopexit:                                        ; preds = %70, %46, %95, %15, %.split.us, %10
  %.032 = phi i32 [ 1, %10 ], [ %.us-phi, %.split.us ], [ 1, %15 ], [ %.2.ph, %95 ], [ 1, %46 ], [ %.2.ph.us66, %70 ]
  ret i32 %.032
}